target datalayout = "e-m:e-p270:32:32-p271:32:32-p272:64:64-i64:64-i128:128-f80:128-n8:16:32:64-S128"
target triple = "x86_64-pc-linux-gnu"

%struct.evthread_lock_callbacks = type { i32, i32, ptr, ptr, ptr, ptr }
%struct.bufferevent_private = type { %struct.bufferevent, ptr, i8, i16, i16, i16, i32, i32, %struct.event_callback, i32, i32, ptr, i64, i64, ptr, %union.anon.7, ptr }
%struct.bufferevent = type { ptr, ptr, %struct.event, %struct.event, ptr, ptr, %struct.event_watermark, %struct.event_watermark, ptr, ptr, ptr, ptr, %struct.timeval, %struct.timeval, i16 }
%struct.event = type { %struct.event_callback, %union.anon.0, i32, i16, i16, ptr, %union.anon.2, %struct.timeval }
%union.anon.0 = type { %struct.anon.1 }
%struct.anon.1 = type { ptr, ptr }
%union.anon.2 = type { %struct.anon.3 }
%struct.anon.3 = type { %struct.anon.4, %struct.timeval }
%struct.anon.4 = type { ptr, ptr }
%struct.event_watermark = type { i64, i64 }
%struct.timeval = type { i64, i64 }
%struct.event_callback = type { %struct.anon, i16, i8, i8, %union.anon, ptr }
%struct.anon = type { ptr, ptr }
%union.anon = type { ptr }
%union.anon.7 = type { %struct.sockaddr_in6 }
%struct.sockaddr_in6 = type { i16, i16, i32, %struct.in6_addr, i32 }
%struct.in6_addr = type { %union.anon.8 }
%union.anon.8 = type { [4 x i32] }

@evthread_lock_fns_ = external global %struct.evthread_lock_callbacks, align 8

; Function Attrs: nounwind uwtable
define void @bufferevent_getcb(ptr noundef %0, ptr noundef %1, ptr noundef %2, ptr noundef %3, ptr noundef %4) #0 {
  %6 = alloca ptr, align 8
  %7 = alloca ptr, align 8
  %8 = alloca ptr, align 8
  %9 = alloca ptr, align 8
  %10 = alloca ptr, align 8
  %11 = alloca ptr, align 8
  %12 = alloca ptr, align 8
  store ptr %0, ptr %6, align 8
  store ptr %1, ptr %7, align 8
  store ptr %2, ptr %8, align 8
  store ptr %3, ptr %9, align 8
  store ptr %4, ptr %10, align 8
  br label %13

13:                                               ; preds = %5
  call void @llvm.lifetime.start.p0(i64 8, ptr %11) #7
  %14 = load ptr, ptr %6, align 8
  %15 = getelementptr inbounds i8, ptr %14, i64 0
  store ptr %15, ptr %11, align 8
  br label %16

16:                                               ; preds = %13
  %17 = load ptr, ptr %11, align 8
  %18 = getelementptr inbounds nuw %struct.bufferevent_private, ptr %17, i32 0, i32 11
  %19 = load ptr, ptr %18, align 8
  %20 = icmp ne ptr %19, null
  br i1 %20, label %21, label %27

21:                                               ; preds = %16
  %22 = load ptr, ptr getelementptr inbounds nuw (%struct.evthread_lock_callbacks, ptr @evthread_lock_fns_, i32 0, i32 4), align 8
  %23 = load ptr, ptr %11, align 8
  %24 = getelementptr inbounds nuw %struct.bufferevent_private, ptr %23, i32 0, i32 11
  %25 = load ptr, ptr %24, align 8
  %26 = call i32 %22(i32 noundef 0, ptr noundef %25)
  br label %27

27:                                               ; preds = %21, %16
  br label %28

28:                                               ; preds = %27
  br label %29

29:                                               ; preds = %28
  call void @llvm.lifetime.end.p0(i64 8, ptr %11) #7
  br label %30

30:                                               ; preds = %29
  %31 = load ptr, ptr %7, align 8
  %32 = icmp ne ptr %31, null
  br i1 %32, label %33, label %38

33:                                               ; preds = %30
  %34 = load ptr, ptr %6, align 8
  %35 = getelementptr inbounds nuw %struct.bufferevent, ptr %34, i32 0, i32 8
  %36 = load ptr, ptr %35, align 8
  %37 = load ptr, ptr %7, align 8
  store ptr %36, ptr %37, align 8
  br label %38

38:                                               ; preds = %33, %30
  %39 = load ptr, ptr %8, align 8
  %40 = icmp ne ptr %39, null
  br i1 %40, label %41, label %46

41:                                               ; preds = %38
  %42 = load ptr, ptr %6, align 8
  %43 = getelementptr inbounds nuw %struct.bufferevent, ptr %42, i32 0, i32 9
  %44 = load ptr, ptr %43, align 8
  %45 = load ptr, ptr %8, align 8
  store ptr %44, ptr %45, align 8
  br label %46

46:                                               ; preds = %41, %38
  %47 = load ptr, ptr %9, align 8
  %48 = icmp ne ptr %47, null
  br i1 %48, label %49, label %54

49:                                               ; preds = %46
  %50 = load ptr, ptr %6, align 8
  %51 = getelementptr inbounds nuw %struct.bufferevent, ptr %50, i32 0, i32 10
  %52 = load ptr, ptr %51, align 8
  %53 = load ptr, ptr %9, align 8
  store ptr %52, ptr %53, align 8
  br label %54

54:                                               ; preds = %49, %46
  %55 = load ptr, ptr %10, align 8
  %56 = icmp ne ptr %55, null
  br i1 %56, label %57, label %62

57:                                               ; preds = %54
  %58 = load ptr, ptr %6, align 8
  %59 = getelementptr inbounds nuw %struct.bufferevent, ptr %58, i32 0, i32 11
  %60 = load ptr, ptr %59, align 8
  %61 = load ptr, ptr %10, align 8
  store ptr %60, ptr %61, align 8
  br label %62

62:                                               ; preds = %57, %54
  br label %63

63:                                               ; preds = %62
  call void @llvm.lifetime.start.p0(i64 8, ptr %12) #7
  %64 = load ptr, ptr %6, align 8
  %65 = getelementptr inbounds i8, ptr %64, i64 0
  store ptr %65, ptr %12, align 8
  br label %66

66:                                               ; preds = %63
  %67 = load ptr, ptr %12, align 8
  %68 = getelementptr inbounds nuw %struct.bufferevent_private, ptr %67, i32 0, i32 11
  %69 = load ptr, ptr %68, align 8
  %70 = icmp ne ptr %69, null
  br i1 %70, label %71, label %77

71:                                               ; preds = %66
  %72 = load ptr, ptr getelementptr inbounds nuw (%struct.evthread_lock_callbacks, ptr @evthread_lock_fns_, i32 0, i32 5), align 8
  %73 = load ptr, ptr %12, align 8
  %74 = getelementptr inbounds nuw %struct.bufferevent_private, ptr %73, i32 0, i32 11
  %75 = load ptr, ptr %74, align 8
  %76 = call i32 %72(i32 noundef 0, ptr noundef %75)
  br label %77

77:                                               ; preds = %71, %66
  br label %78

78:                                               ; preds = %77
  br label %79

79:                                               ; preds = %78
  call void @llvm.lifetime.end.p0(i64 8, ptr %12) #7
  br label %80

80:                                               ; preds = %79
  ret void
}