; Function Attrs: nounwind uwtable
define void @bufferevent_getcb(ptr noundef readonly captures(none) %0, ptr noundef writeonly captures(address_is_null) %1, ptr noundef writeonly captures(address_is_null) %2, ptr noundef writeonly captures(address_is_null) %3, ptr noundef writeonly captures(address_is_null) %4) local_unnamed_addr #0 {
  %6 = getelementptr inbounds nuw i8, ptr %0, i64 448
  %7 = load ptr, ptr %6, align 8
  %.not = icmp eq ptr %7, null
  br i1 %.not, label %11, label %8

8:                                                ; preds = %5
  %9 = load ptr, ptr getelementptr inbounds nuw (i8, ptr @evthread_lock_fns_, i64 24), align 8
  %10 = tail call i32 %9(i32 noundef 0, ptr noundef nonnull %7) #7
  br label %11

11:                                               ; preds = %8, %5
  %.not23 = icmp eq ptr %1, null
  br i1 %.not23, label %15, label %12

12:                                               ; preds = %11
  %13 = getelementptr inbounds nuw i8, ptr %0, i64 304
  %14 = load ptr, ptr %13, align 8
  store ptr %14, ptr %1, align 8
  br label %15

15:                                               ; preds = %12, %11
  %.not24 = icmp eq ptr %2, null
  br i1 %.not24, label %19, label %16

16:                                               ; preds = %15
  %17 = getelementptr inbounds nuw i8, ptr %0, i64 312
  %18 = load ptr, ptr %17, align 8
  store ptr %18, ptr %2, align 8
  br label %19

19:                                               ; preds = %16, %15
  %.not25 = icmp eq ptr %3, null
  br i1 %.not25, label %23, label %20

20:                                               ; preds = %19
  %21 = getelementptr inbounds nuw i8, ptr %0, i64 320
  %22 = load ptr, ptr %21, align 8
  store ptr %22, ptr %3, align 8
  br label %23

23:                                               ; preds = %20, %19
  %.not26 = icmp eq ptr %4, null
  br i1 %.not26, label %27, label %24

24:                                               ; preds = %23
  %25 = getelementptr inbounds nuw i8, ptr %0, i64 328
  %26 = load ptr, ptr %25, align 8
  store ptr %26, ptr %4, align 8
  br label %27

27:                                               ; preds = %23, %24
  %28 = load ptr, ptr %6, align 8
  %.not27 = icmp eq ptr %28, null
  br i1 %.not27, label %32, label %29

29:                                               ; preds = %27
  %30 = load ptr, ptr getelementptr inbounds nuw (i8, ptr @evthread_lock_fns_, i64 32), align 8
  %31 = tail call i32 %30(i32 noundef 0, ptr noundef nonnull %28) #7
  br label %32

32:                                               ; preds = %29, %27
  ret void
}